Certificate:
    Data:
        Version: 3 (0x2)
        Serial Number: 2 (0x2)
        Signature Algorithm: sha1WithRSAEncryption
        Issuer: DC=org, DC=simple, O=Simple Inc, OU=Simple Signing CA, CN=Simple Signing CA
        Validity
            Not Before: Nov 22 20:25:14 2021 GMT
            Not After : Nov 22 20:25:14 2023 GMT
        Subject: DC=org, DC=simple, O=Simple Inc, CN=www.simple.org
        Subject Public Key Info:
            Public Key Algorithm: rsaEncryption
                RSA Public-Key: (2048 bit)
                Modulus:
                    00:b8:e8:4d:5c:84:c1:62:20:2a:01:f8:6f:d1:c4:
                    b1:fb:d6:f8:b8:4e:43:1a:b1:d1:79:bb:41:9b:fd:
                    a3:e2:f8:c7:e7:44:3e:8a:a3:3e:9a:8a:86:56:76:
                    a0:4a:80:c6:25:11:34:d8:6c:8f:5a:8b:5c:4b:fc:
                    59:c6:94:97:8b:0a:c6:b9:af:67:70:12:b1:b5:2e:
                    15:78:a7:9f:7a:24:79:c0:be:46:79:c7:43:2a:78:
                    21:4c:cb:92:98:e1:af:38:b0:72:90:8e:f7:1f:43:
                    c6:47:5a:77:3b:c6:54:9d:b0:b8:08:2c:78:c8:bc:
                    f2:d1:f7:74:7a:78:a0:79:a4:66:61:f8:e7:0e:bc:
                    01:2b:a3:b1:88:f2:7a:09:10:80:49:9a:a1:ef:ae:
                    87:27:66:38:7a:db:20:aa:f7:a3:de:f7:f3:73:25:
                    b6:d5:42:99:14:f1:d4:ca:ef:7d:76:dd:66:26:2f:
                    26:f7:6f:51:ef:6b:81:8d:e4:6f:57:ef:71:80:19:
                    1d:34:e9:52:1d:21:c0:b4:26:1d:17:db:e0:d1:d6:
                    ff:10:96:60:ac:a7:a6:b7:31:ee:93:68:58:d5:34:
                    80:01:9c:9c:6e:47:3e:ed:20:4b:a4:a4:f4:f4:da:
                    18:45:b8:86:8b:3f:d2:5b:a4:cb:e7:81:eb:84:f5:
                    a7:3b
                Exponent: 65537 (0x10001)
        X509v3 extensions:
            X509v3 Key Usage: critical
                Digital Signature, Key Encipherment
            X509v3 Basic Constraints: 
                CA:FALSE
            X509v3 Extended Key Usage: 
                TLS Web Server Authentication, TLS Web Client Authentication
            X509v3 Subject Key Identifier: 
                9F:C6:84:A3:0E:C8:1D:07:A2:06:00:3F:60:97:9D:D1:4B:27:24:97
            X509v3 Authority Key Identifier: 
                keyid:2B:E5:06:AE:09:44:2B:EE:54:F8:19:04:46:37:AE:A8:97:D5:22:C1

            X509v3 Subject Alternative Name: 
                DNS:www.simple.org
    Signature Algorithm: sha1WithRSAEncryption
         79:7a:6a:93:d0:79:2d:21:01:0f:53:65:df:07:5c:6d:a7:85:
         a4:9b:bd:42:d3:42:cd:76:f7:60:f2:c1:77:4d:6a:e8:6f:5f:
         e6:32:7c:a8:3a:99:9c:65:44:e2:36:ac:24:9e:2a:47:2e:8f:
         59:75:87:76:d0:59:51:45:b7:56:35:40:50:fe:8c:90:52:74:
         19:8a:c1:0a:15:e7:56:d6:81:05:db:19:fe:bb:bd:66:1f:fa:
         8d:9f:67:4f:13:24:b5:d0:28:bb:f9:01:f9:41:55:4b:01:3c:
         cf:17:ca:9f:58:a9:9c:4f:64:ef:78:05:12:17:28:c9:54:d2:
         76:db:b5:e0:28:f7:6c:be:5d:c8:5e:95:a9:c7:63:e5:9d:42:
         82:d5:03:be:79:26:29:bd:4b:fc:6b:b6:96:5b:fa:bd:98:5a:
         5e:4c:44:0b:19:d1:a9:6a:54:4e:b5:f2:29:9c:8c:51:7a:78:
         e3:bb:34:e0:cc:91:12:89:64:b7:00:cc:9a:71:cf:c3:10:a5:
         5b:f9:d5:5c:1e:77:bf:b1:b8:ee:0a:bf:83:bf:13:d6:dd:ac:
         86:2e:cf:b9:d8:0a:74:b3:68:bd:53:f6:b2:64:c1:3e:85:73:
         0c:93:9d:7b:f1:bc:75:32:53:85:b6:5d:89:7c:e7:d9:74:82:
         07:de:98:01
-----BEGIN CERTIFICATE-----
MIID6TCCAtGgAwIBAgIBAjANBgkqhkiG9w0BAQUFADB6MRMwEQYKCZImiZPyLGQB
GRYDb3JnMRYwFAYKCZImiZPyLGQBGRYGc2ltcGxlMRMwEQYDVQQKDApTaW1wbGUg
SW5jMRowGAYDVQQLDBFTaW1wbGUgU2lnbmluZyBDQTEaMBgGA1UEAwwRU2ltcGxl
IFNpZ25pbmcgQ0EwHhcNMjExMTIyMjAyNTE0WhcNMjMxMTIyMjAyNTE0WjBbMRMw
EQYKCZImiZPyLGQBGRYDb3JnMRYwFAYKCZImiZPyLGQBGRYGc2ltcGxlMRMwEQYD
VQQKDApTaW1wbGUgSW5jMRcwFQYDVQQDDA53d3cuc2ltcGxlLm9yZzCCASIwDQYJ
KoZIhvcNAQEBBQADggEPADCCAQoCggEBALjoTVyEwWIgKgH4b9HEsfvW+LhOQxqx
0Xm7QZv9o+L4x+dEPoqjPpqKhlZ2oEqAxiURNNhsj1qLXEv8WcaUl4sKxrmvZ3AS
sbUuFXinn3okecC+RnnHQyp4IUzLkpjhrziwcpCO9x9DxkdadzvGVJ2wuAgseMi8
8tH3dHp4oHmkZmH45w68ASujsYjyegkQgEmaoe+uhydmOHrbIKr3o97383MlttVC
mRTx1MrvfXbdZiYvJvdvUe9rgY3kb1fvcYAZHTTpUh0hwLQmHRfb4NHW/xCWYKyn
prcx7pNoWNU0gAGcnG5HPu0gS6Sk9PTaGEW4hos/0luky+eB64T1pzsCAwEAAaOB
mDCBlTAOBgNVHQ8BAf8EBAMCBaAwCQYDVR0TBAIwADAdBgNVHSUEFjAUBggrBgEF
BQcDAQYIKwYBBQUHAwIwHQYDVR0OBBYEFJ/GhKMOyB0HogYAP2CXndFLJySXMB8G
A1UdIwQYMBaAFCvlBq4JRCvuVPgZBEY3rqiX1SLBMBkGA1UdEQQSMBCCDnd3dy5z
aW1wbGUub3JnMA0GCSqGSIb3DQEBBQUAA4IBAQB5emqT0HktIQEPU2XfB1xtp4Wk
m71C00LNdvdg8sF3TWrob1/mMnyoOpmcZUTiNqwknipHLo9ZdYd20FlRRbdWNUBQ
/oyQUnQZisEKFedW1oEF2xn+u71mH/qNn2dPEyS10Ci7+QH5QVVLATzPF8qfWKmc
T2TveAUSFyjJVNJ227XgKPdsvl3IXpWpx2PlnUKC1QO+eSYpvUv8a7aWW/q9mFpe
TEQLGdGpalROtfIpnIxRenjjuzTgzJESiWS3AMyacc/DEKVb+dVcHne/sbjuCr+D
vxPW3ayGLs+52Ap0s2i9U/ayZME+hXMMk5178bx1MlOFtl2JfOfZdIIH3pgB
-----END CERTIFICATE-----
