-----BEGIN ENCRYPTED PRIVATE KEY-----
MIIFHDBOBgkqhkiG9w0BBQ0wQTApBgkqhkiG9w0BBQwwHAQIW2nw+ZLY9M8CAggA
MAwGCCqGSIb3DQIJBQAwFAYIKoZIhvcNAwcECGjlgdheOP7dBIIEyE+06nSqt/wp
cbeytqv1kAj1+dtBNWkJHdBmikJJDY78i1Bh1unWDlKzStUI/IN17fasgBqWU/5d
kO/yrAnf+TVMqaPTv9n8LdpXTTQ2xz8RknPuR+CLOfY0ChmSvKPR10wAZi4fjVoJ
+DhzZkwWEmcjNCINCZpGSWVMiw14twVThBuX3LfiDHI/fpn6sTYfY1O8bSq5PZ7r
+pAZW0n6BM3nQpyHuVtQl0NQpzC37hys4jkwTQdtnTq0L8SVzfhOufdleIQ+Vy1A
S/6tZwxHWuV95Z/vboVznLRXPUEbgLj/gG+/23ClJ++oXx6hCU5UfNzh/naGutSO
kAdGKy6urDo1O1kswJ/aYP/29sXKB4tFJdYUXqk6k0iMVC+2Di3gDFYAOfa9uEYv
rZtdaM7+7Zq21OaKzdM8rGJ8yW68EVqA8dnDQi5jXmEIiyBO0MmDHA12AXdIKKj4
Navjeae6+LqJ8ukKN96E7jRslEPngiBimgYfjR3umJRe2FYWKw3LY3Me0h/G2CTw
rzzVpJJDG8gUw7rJlClggACq3ZroVSTV+qHUFDu2T2XwB9cTArtP2G9QYlXPPlYk
6vSiqo2y8Bu4skZ1CWjU1AEVyFb6RjQLHKi8ms2MggBJDzDq4qAnXutV5D6vnbIq
5BhA7q8H/anRFy0+RN34a4iZQpXR8ciqLdCPKlVG7rhNE4YGkxplghDhrf4FSjyS
Cqo94w3bwalfjkUX+q5f08u2WWXoRasPZrKXgxupUGbtwkEhAfubYVHG1N1RTv35
Yuh5fWWOEMa2F5+YPk8j4HcGkTM43Hav+cVJhvSmDJfIUJ+r1Uv8dDwx/WJOTngH
aCp9jua5sD2K9OQBp2WExCMtZfu4p8hvXA7J34JVcSBqbOscRFJWLf9qoXuH3sKe
Z1N082cGBzfA8dTzWXN0scu9VIbwlgpaRV2v4VWVQqVV+OoV4B9jLPUgRJwi1qvn
Yoku0A2jnvjOuzoavlW3bsOdXBfjAvwuTjDtXn0P9EmmemT4B38arHOrOZTwiX9K
RBg25DNpko3p5XENGJlrHow87oIT0DA68dLtcIKtYbk2eSuvI8MNXcfqbQNaWqTt
NfLLCbOms5T4M4PZImWc23Z3E8+vTZ174EKBKf6fR+oH43bWbPo4eRo1rmiey6VD
M6XIXHZhtRftgq2ZNO7YGov0BRm7cIqwoNhvJgT7+/DCMq7OkH+3BrDirRej7Uj7
sYOHf18g2/AHt8Q9AfDOwb/rSe/FLIxSH1/L5RtqVgka/QoU6NEsaEG7fXwLR3PY
ovveBzB0E2u6viPZCNi6bQYW/VBoLUI7YVk3akomk6Tm9KPhMqrQiU3AAhDXch6J
u9SWuuTPYc1Og6bEb0Lgo7H3KhJZxsQ0PRKDHh0uj7HPLSXvFudMcnvH2EisACk+
kH8cHGHQ96u5Ddc8vma9W6hk3jQ4zFH6JjXhzl8Nwd6kno0YxL8nygkgglIS2wjH
k2c93XQFg+b5ozAoaTW6tVoZybhik55S61QrT+0khcBPEA94+3i36y6SedBtYPYY
h0q1SLnRI/aLWsgwTqnwGpEEroyypPkrS2H9kH6VbEv+ugKQuqFavARBAWmqDutV
KKpRRBgjsvtEO9wzd6yghA==
-----END ENCRYPTED PRIVATE KEY-----
Certificate:
    Data:
        Version: 3 (0x2)
        Serial Number: 1 (0x1)
        Signature Algorithm: sha1WithRSAEncryption
        Issuer: DC=org, DC=simple, O=Simple Inc, OU=Simple Signing CA, CN=Simple Signing CA
        Validity
            Not Before: Nov 22 20:23:40 2021 GMT
            Not After : Nov 22 20:23:40 2023 GMT
        Subject: DC=org, DC=simple, O=Simple Inc, CN=Fred Flintstone
        Subject Public Key Info:
            Public Key Algorithm: rsaEncryption
                RSA Public-Key: (2048 bit)
                Modulus:
                    00:de:0f:11:37:0c:09:83:6e:7a:cb:e1:f2:d3:c9:
                    64:c9:ce:c7:3b:6b:ef:a6:0b:2f:00:4f:5c:08:ac:
                    98:40:72:a2:5e:1f:85:bf:6e:ea:fd:f0:d5:bc:80:
                    60:6e:22:c6:7a:3b:6d:48:59:c2:8d:4a:ad:19:ed:
                    d7:9c:3b:c2:57:92:9c:bc:5c:af:c4:58:e8:14:2d:
                    90:dc:73:1c:d7:40:5a:94:e8:c4:c7:60:69:40:91:
                    72:b8:04:e9:f6:fa:7b:67:40:46:0a:22:da:d4:1b:
                    b4:7d:25:f0:b0:b9:e5:d0:03:b6:5f:b7:8d:04:a1:
                    e7:84:ef:66:6f:e9:13:25:a6:c8:fd:e7:15:92:6c:
                    cd:a0:bf:89:9f:54:01:78:30:1c:f5:38:44:7c:bc:
                    f4:93:d7:f7:04:35:47:87:2e:50:b2:b9:06:73:a2:
                    3f:fb:71:3a:f1:2b:b5:b2:e3:ba:d6:eb:c4:12:39:
                    1e:02:58:2d:c2:51:6e:75:3e:67:2a:70:98:2c:8a:
                    cb:04:e0:0d:90:8b:64:5a:a1:9a:49:75:84:7f:3f:
                    8a:ed:1d:18:c6:b1:9e:ab:b4:0a:9c:93:2a:3d:cd:
                    d6:b3:8c:5b:ca:3f:71:8e:84:27:34:ff:f6:69:b7:
                    d8:0b:b7:06:db:b3:5b:e4:85:94:fc:5d:01:b3:2e:
                    30:b3
                Exponent: 65537 (0x10001)
        X509v3 extensions:
            X509v3 Key Usage: critical
                Digital Signature, Key Encipherment
            X509v3 Basic Constraints: 
                CA:FALSE
            X509v3 Extended Key Usage: 
                E-mail Protection, TLS Web Client Authentication
            X509v3 Subject Key Identifier: 
                64:B1:32:EA:35:7B:60:D0:79:2E:ED:6F:2A:F6:F5:17:69:AC:B9:CE
            X509v3 Authority Key Identifier: 
                keyid:2B:E5:06:AE:09:44:2B:EE:54:F8:19:04:46:37:AE:A8:97:D5:22:C1

            X509v3 Subject Alternative Name: 
                email:fred@simple.org
    Signature Algorithm: sha1WithRSAEncryption
         0d:36:6e:cc:59:b9:37:7b:9f:53:80:6a:8e:09:3c:0c:a0:69:
         34:b3:5a:29:5b:ea:15:51:52:e9:22:a9:8c:8e:b4:bb:16:cf:
         60:22:18:cd:2c:70:43:02:69:17:fa:e3:91:c2:51:7e:62:ca:
         75:fd:a1:89:b0:95:4a:8a:d3:5a:ea:80:9d:ed:be:ed:cb:80:
         92:0e:ac:61:c3:85:6d:79:6b:eb:a0:01:b5:1d:27:fb:b5:79:
         f6:7f:bb:21:07:7b:3a:71:2e:d9:a3:61:59:1e:c0:98:53:5b:
         79:8e:02:9c:66:40:ac:0e:81:ac:9b:c0:d3:f5:66:f4:15:d9:
         af:bc:3a:f4:ea:57:76:c9:27:6d:8d:2f:55:7e:ff:b2:2c:e1:
         53:53:70:26:bc:5a:ad:4b:0c:57:ca:0a:b7:59:50:bf:8f:f7:
         60:84:27:a3:a9:3b:d5:b2:62:9d:7b:d7:27:b2:e3:cd:7a:83:
         be:2f:a6:86:3e:fc:13:3e:5c:72:2b:0e:69:65:a0:61:61:b4:
         49:b6:9a:42:35:8a:a4:28:7f:16:2c:51:98:fa:02:0c:be:d0:
         80:9e:ba:4a:93:a9:0a:e3:65:83:31:60:75:2c:16:d4:65:e2:
         89:eb:98:55:5e:0e:33:a2:f9:de:63:04:d0:02:2c:60:75:4e:
         22:44:c4:1d
-----BEGIN CERTIFICATE-----
MIID6zCCAtOgAwIBAgIBATANBgkqhkiG9w0BAQUFADB6MRMwEQYKCZImiZPyLGQB
GRYDb3JnMRYwFAYKCZImiZPyLGQBGRYGc2ltcGxlMRMwEQYDVQQKDApTaW1wbGUg
SW5jMRowGAYDVQQLDBFTaW1wbGUgU2lnbmluZyBDQTEaMBgGA1UEAwwRU2ltcGxl
IFNpZ25pbmcgQ0EwHhcNMjExMTIyMjAyMzQwWhcNMjMxMTIyMjAyMzQwWjBcMRMw
EQYKCZImiZPyLGQBGRYDb3JnMRYwFAYKCZImiZPyLGQBGRYGc2ltcGxlMRMwEQYD
VQQKDApTaW1wbGUgSW5jMRgwFgYDVQQDDA9GcmVkIEZsaW50c3RvbmUwggEiMA0G
CSqGSIb3DQEBAQUAA4IBDwAwggEKAoIBAQDeDxE3DAmDbnrL4fLTyWTJzsc7a++m
Cy8AT1wIrJhAcqJeH4W/bur98NW8gGBuIsZ6O21IWcKNSq0Z7decO8JXkpy8XK/E
WOgULZDccxzXQFqU6MTHYGlAkXK4BOn2+ntnQEYKItrUG7R9JfCwueXQA7Zft40E
oeeE72Zv6RMlpsj95xWSbM2gv4mfVAF4MBz1OER8vPST1/cENUeHLlCyuQZzoj/7
cTrxK7Wy47rW68QSOR4CWC3CUW51PmcqcJgsissE4A2Qi2RaoZpJdYR/P4rtHRjG
sZ6rtAqckyo9zdazjFvKP3GOhCc0//Zpt9gLtwbbs1vkhZT8XQGzLjCzAgMBAAGj
gZkwgZYwDgYDVR0PAQH/BAQDAgWgMAkGA1UdEwQCMAAwHQYDVR0lBBYwFAYIKwYB
BQUHAwQGCCsGAQUFBwMCMB0GA1UdDgQWBBRksTLqNXtg0Hku7W8q9vUXaay5zjAf
BgNVHSMEGDAWgBQr5QauCUQr7lT4GQRGN66ol9UiwTAaBgNVHREEEzARgQ9mcmVk
QHNpbXBsZS5vcmcwDQYJKoZIhvcNAQEFBQADggEBAA02bsxZuTd7n1OAao4JPAyg
aTSzWilb6hVRUukiqYyOtLsWz2AiGM0scEMCaRf645HCUX5iynX9oYmwlUqK01rq
gJ3tvu3LgJIOrGHDhW15a+ugAbUdJ/u1efZ/uyEHezpxLtmjYVkewJhTW3mOApxm
QKwOgaybwNP1ZvQV2a+8OvTqV3bJJ22NL1V+/7Is4VNTcCa8Wq1LDFfKCrdZUL+P
92CEJ6OpO9WyYp171yey4816g74vpoY+/BM+XHIrDmlloGFhtEm2mkI1iqQofxYs
UZj6Agy+0ICeukqTqQrjZYMxYHUsFtRl4onrmFVeDjOi+d5jBNACLGB1TiJExB0=
-----END CERTIFICATE-----
