Certificate:
    Data:
        Version: 3 (0x2)
        Serial Number: 2 (0x2)
        Signature Algorithm: sha1WithRSAEncryption
        Issuer: DC=org, DC=simple, O=Simple Inc, OU=Simple Root CA, CN=Simple Root CA
        Validity
            Not Before: Nov 22 20:22:09 2021 GMT
            Not After : Nov 22 20:22:09 2031 GMT
        Subject: DC=org, DC=simple, O=Simple Inc, OU=Simple Signing CA, CN=Simple Signing CA
        Subject Public Key Info:
            Public Key Algorithm: rsaEncryption
                RSA Public-Key: (2048 bit)
                Modulus:
                    00:b0:0f:38:da:ae:bf:35:58:c1:7c:34:9b:8f:5b:
                    e3:4a:03:9b:82:db:16:b7:22:88:17:50:03:aa:41:
                    f8:4f:c8:a9:ef:ba:2b:a1:3b:f8:0d:34:fd:12:5b:
                    62:fa:c4:28:dc:0e:4d:1c:68:1b:ed:a1:ba:57:3a:
                    cc:36:98:b8:f1:85:0e:be:f6:65:22:50:d5:e9:32:
                    b2:a6:c0:7f:c7:bd:24:fb:4a:10:f6:1d:86:00:a7:
                    6c:5b:01:19:9a:78:4a:e1:ec:e5:d3:fc:f1:97:a0:
                    a6:59:c1:0e:3e:d2:70:7e:76:ac:db:ed:5d:25:76:
                    18:23:6a:26:38:af:e2:ab:55:02:83:9c:93:b1:6a:
                    ef:69:0d:4a:9f:28:9f:7a:3c:0e:83:1a:8f:21:b0:
                    09:fd:ab:60:54:15:a6:fc:fb:d4:4c:a5:f9:cc:12:
                    97:6a:bb:e2:ca:23:be:1e:d1:8b:43:81:27:66:e2:
                    eb:15:af:29:d9:90:10:35:9c:c8:7b:da:13:d0:08:
                    dc:43:a2:54:0e:17:8c:b8:d3:79:d3:03:ff:bb:ec:
                    59:36:a7:da:d9:e4:b5:77:5a:2a:5f:61:8c:d1:b2:
                    57:59:71:97:1a:3c:b2:37:87:ec:49:87:e4:26:2e:
                    cd:6a:4e:1b:87:15:22:d9:64:db:82:45:e1:f1:6d:
                    10:d9
                Exponent: 65537 (0x10001)
        X509v3 extensions:
            X509v3 Key Usage: critical
                Certificate Sign, CRL Sign
            X509v3 Basic Constraints: critical
                CA:TRUE, pathlen:0
            X509v3 Subject Key Identifier: 
                2B:E5:06:AE:09:44:2B:EE:54:F8:19:04:46:37:AE:A8:97:D5:22:C1
            X509v3 Authority Key Identifier: 
                keyid:CE:D8:8D:3E:C0:ED:E6:D5:92:6A:05:44:51:77:C6:0F:9D:72:64:E5

    Signature Algorithm: sha1WithRSAEncryption
         92:ac:21:4c:f3:57:3c:cc:71:d1:78:c5:d0:df:12:af:80:9e:
         e5:f7:6c:9a:8a:c4:91:cd:d6:45:ab:f4:20:82:5d:ed:9e:38:
         50:46:b8:95:72:80:8b:ce:9e:11:13:e6:40:2e:56:e8:26:f5:
         2c:b1:eb:47:a9:d1:56:ed:76:50:70:c0:86:ae:c1:29:2e:b8:
         13:38:18:f9:59:a4:5a:7c:8a:5a:7a:fa:19:ed:20:cc:8e:15:
         f5:b8:42:24:8c:04:30:18:ec:44:9d:e4:78:72:5e:fc:ec:31:
         a8:d6:15:71:33:67:e5:9b:ed:1b:b1:a6:d7:4e:cc:09:d4:9a:
         b7:3c:88:f7:f2:76:95:de:4f:98:85:39:4e:81:20:85:db:0e:
         6d:a4:01:92:ac:2b:fd:8f:39:d8:2c:71:df:46:58:67:2b:54:
         fd:78:2e:59:8f:96:5b:eb:6d:38:59:d8:ce:27:74:b4:90:1e:
         d2:13:a2:cc:e0:5a:4a:3e:03:92:44:cb:b9:c7:5f:32:60:bc:
         23:28:ee:8f:5e:88:0e:2e:07:27:a6:d2:29:0f:74:67:ae:64:
         a9:02:b9:4f:96:b1:b3:53:6e:e9:af:c0:b7:e9:54:9e:9c:ea:
         37:85:56:01:09:8e:4f:68:dc:ea:e7:2e:fc:78:fb:4d:99:d4:
         c5:95:75:63
-----BEGIN CERTIFICATE-----
MIIDzzCCAregAwIBAgIBAjANBgkqhkiG9w0BAQUFADB0MRMwEQYKCZImiZPyLGQB
GRYDb3JnMRYwFAYKCZImiZPyLGQBGRYGc2ltcGxlMRMwEQYDVQQKDApTaW1wbGUg
SW5jMRcwFQYDVQQLDA5TaW1wbGUgUm9vdCBDQTEXMBUGA1UEAwwOU2ltcGxlIFJv
b3QgQ0EwHhcNMjExMTIyMjAyMjA5WhcNMzExMTIyMjAyMjA5WjB6MRMwEQYKCZIm
iZPyLGQBGRYDb3JnMRYwFAYKCZImiZPyLGQBGRYGc2ltcGxlMRMwEQYDVQQKDApT
aW1wbGUgSW5jMRowGAYDVQQLDBFTaW1wbGUgU2lnbmluZyBDQTEaMBgGA1UEAwwR
U2ltcGxlIFNpZ25pbmcgQ0EwggEiMA0GCSqGSIb3DQEBAQUAA4IBDwAwggEKAoIB
AQCwDzjarr81WMF8NJuPW+NKA5uC2xa3IogXUAOqQfhPyKnvuiuhO/gNNP0SW2L6
xCjcDk0caBvtobpXOsw2mLjxhQ6+9mUiUNXpMrKmwH/HvST7ShD2HYYAp2xbARma
eErh7OXT/PGXoKZZwQ4+0nB+dqzb7V0ldhgjaiY4r+KrVQKDnJOxau9pDUqfKJ96
PA6DGo8hsAn9q2BUFab8+9RMpfnMEpdqu+LKI74e0YtDgSdm4usVrynZkBA1nMh7
2hPQCNxDolQOF4y403nTA/+77Fk2p9rZ5LV3WipfYYzRsldZcZcaPLI3h+xJh+Qm
Ls1qThuHFSLZZNuCReHxbRDZAgMBAAGjZjBkMA4GA1UdDwEB/wQEAwIBBjASBgNV
HRMBAf8ECDAGAQH/AgEAMB0GA1UdDgQWBBQr5QauCUQr7lT4GQRGN66ol9UiwTAf
BgNVHSMEGDAWgBTO2I0+wO3m1ZJqBURRd8YPnXJk5TANBgkqhkiG9w0BAQUFAAOC
AQEAkqwhTPNXPMxx0XjF0N8Sr4Ce5fdsmorEkc3WRav0IIJd7Z44UEa4lXKAi86e
ERPmQC5W6Cb1LLHrR6nRVu12UHDAhq7BKS64EzgY+VmkWnyKWnr6Ge0gzI4V9bhC
JIwEMBjsRJ3keHJe/OwxqNYVcTNn5ZvtG7Gm107MCdSatzyI9/J2ld5PmIU5ToEg
hdsObaQBkqwr/Y852Cxx30ZYZytU/XguWY+WW+ttOFnYzid0tJAe0hOizOBaSj4D
kkTLucdfMmC8Iyjuj16IDi4HJ6bSKQ90Z65kqQK5T5axs1Nu6a/At+lUnpzqN4VW
AQmOT2jc6ucu/Hj7TZnUxZV1Yw==
-----END CERTIFICATE-----
Certificate:
    Data:
        Version: 3 (0x2)
        Serial Number: 1 (0x1)
        Signature Algorithm: sha1WithRSAEncryption
        Issuer: DC=org, DC=simple, O=Simple Inc, OU=Simple Root CA, CN=Simple Root CA
        Validity
            Not Before: Nov 22 20:20:53 2021 GMT
            Not After : Nov 22 20:20:53 2031 GMT
        Subject: DC=org, DC=simple, O=Simple Inc, OU=Simple Root CA, CN=Simple Root CA
        Subject Public Key Info:
            Public Key Algorithm: rsaEncryption
                RSA Public-Key: (2048 bit)
                Modulus:
                    00:9a:3a:75:ce:8e:b8:cc:52:15:bf:be:7a:b2:cc:
                    aa:49:91:a0:af:bf:09:c3:44:41:f7:56:bd:13:5e:
                    4c:75:21:85:0e:6d:cc:2a:82:b0:a7:81:43:41:ac:
                    4d:b6:27:b4:40:0e:e9:06:c3:e5:ce:d6:79:52:85:
                    a7:07:a5:65:37:b0:45:1b:3c:5f:13:ac:af:f8:41:
                    7f:30:43:42:9f:99:67:c1:3e:9a:2c:bc:fe:8e:ee:
                    b1:f6:8b:06:89:e1:0f:bc:ee:82:e3:29:29:8e:69:
                    83:61:c9:c3:0c:8f:25:94:e1:44:8a:df:93:8a:10:
                    1e:ff:3d:c7:70:3c:35:a2:5f:31:2e:59:4d:66:26:
                    c5:e4:69:67:e6:77:8b:80:60:39:39:54:0d:3f:da:
                    f1:07:92:ee:ee:e4:5a:e7:d3:5c:52:26:bf:ea:f6:
                    e8:0e:bf:27:2c:ac:e4:84:ef:7b:39:77:26:fe:81:
                    07:cc:cd:2c:5b:70:43:39:5a:a2:2b:9d:b2:d4:92:
                    bf:0f:08:e4:32:5c:13:2a:aa:ba:78:d8:17:29:85:
                    7b:fd:9d:20:a0:31:0e:2c:13:fa:60:c8:48:35:e9:
                    04:a2:d7:6c:a5:a1:79:5f:e3:ab:54:10:04:98:83:
                    2e:12:54:c5:bc:3e:91:f6:d2:66:0d:73:af:d3:f8:
                    28:7d
                Exponent: 65537 (0x10001)
        X509v3 extensions:
            X509v3 Key Usage: critical
                Certificate Sign, CRL Sign
            X509v3 Basic Constraints: critical
                CA:TRUE
            X509v3 Subject Key Identifier: 
                CE:D8:8D:3E:C0:ED:E6:D5:92:6A:05:44:51:77:C6:0F:9D:72:64:E5
            X509v3 Authority Key Identifier: 
                keyid:CE:D8:8D:3E:C0:ED:E6:D5:92:6A:05:44:51:77:C6:0F:9D:72:64:E5

    Signature Algorithm: sha1WithRSAEncryption
         0f:f5:b1:f1:51:8e:c3:80:6a:c6:89:df:36:f3:3e:b0:8f:5c:
         4c:57:63:cb:4e:30:1c:a5:5c:b1:4a:f0:e9:d0:d6:60:72:01:
         23:e5:88:42:50:a8:46:31:ac:c9:f9:8c:2b:74:23:44:c8:7e:
         f8:c4:8e:b0:e4:8f:d4:69:bf:1a:9a:75:9a:d0:dd:89:bb:15:
         f1:14:92:55:c1:91:97:7a:5f:54:d2:23:9c:c6:71:b9:22:f5:
         12:02:72:1a:78:90:54:39:4e:7b:5f:e5:4f:cc:54:02:79:35:
         65:98:ea:f2:69:0b:2b:ca:19:cb:be:34:fb:4e:24:50:e3:6d:
         59:ee:42:1a:ec:5a:b1:d4:5a:d6:22:ca:91:de:1b:a7:59:d3:
         3b:5c:b4:3b:a3:56:c5:88:9b:ad:1f:5f:47:94:c2:fd:29:1a:
         90:d9:7b:66:91:6d:58:22:b2:42:dd:4f:c5:10:f2:be:cc:9d:
         12:b1:df:e6:c0:63:66:ad:fe:4d:b4:61:10:b7:d6:3e:10:d5:
         41:35:f3:36:e3:46:cd:b3:4d:db:d6:26:64:4a:bc:f2:ef:74:
         66:4d:0f:57:f8:75:cf:97:2a:b1:32:2c:9f:38:93:a7:88:77:
         92:35:17:da:29:3e:f4:a4:56:a7:b6:2c:78:b2:f9:05:ad:78:
         94:97:29:3e
-----BEGIN CERTIFICATE-----
MIIDxjCCAq6gAwIBAgIBATANBgkqhkiG9w0BAQUFADB0MRMwEQYKCZImiZPyLGQB
GRYDb3JnMRYwFAYKCZImiZPyLGQBGRYGc2ltcGxlMRMwEQYDVQQKDApTaW1wbGUg
SW5jMRcwFQYDVQQLDA5TaW1wbGUgUm9vdCBDQTEXMBUGA1UEAwwOU2ltcGxlIFJv
b3QgQ0EwHhcNMjExMTIyMjAyMDUzWhcNMzExMTIyMjAyMDUzWjB0MRMwEQYKCZIm
iZPyLGQBGRYDb3JnMRYwFAYKCZImiZPyLGQBGRYGc2ltcGxlMRMwEQYDVQQKDApT
aW1wbGUgSW5jMRcwFQYDVQQLDA5TaW1wbGUgUm9vdCBDQTEXMBUGA1UEAwwOU2lt
cGxlIFJvb3QgQ0EwggEiMA0GCSqGSIb3DQEBAQUAA4IBDwAwggEKAoIBAQCaOnXO
jrjMUhW/vnqyzKpJkaCvvwnDREH3Vr0TXkx1IYUObcwqgrCngUNBrE22J7RADukG
w+XO1nlShacHpWU3sEUbPF8TrK/4QX8wQ0KfmWfBPposvP6O7rH2iwaJ4Q+87oLj
KSmOaYNhycMMjyWU4USK35OKEB7/PcdwPDWiXzEuWU1mJsXkaWfmd4uAYDk5VA0/
2vEHku7u5Frn01xSJr/q9ugOvycsrOSE73s5dyb+gQfMzSxbcEM5WqIrnbLUkr8P
COQyXBMqqrp42BcphXv9nSCgMQ4sE/pgyEg16QSi12yloXlf46tUEASYgy4SVMW8
PpH20mYNc6/T+Ch9AgMBAAGjYzBhMA4GA1UdDwEB/wQEAwIBBjAPBgNVHRMBAf8E
BTADAQH/MB0GA1UdDgQWBBTO2I0+wO3m1ZJqBURRd8YPnXJk5TAfBgNVHSMEGDAW
gBTO2I0+wO3m1ZJqBURRd8YPnXJk5TANBgkqhkiG9w0BAQUFAAOCAQEAD/Wx8VGO
w4BqxonfNvM+sI9cTFdjy04wHKVcsUrw6dDWYHIBI+WIQlCoRjGsyfmMK3QjRMh+
+MSOsOSP1Gm/Gpp1mtDdibsV8RSSVcGRl3pfVNIjnMZxuSL1EgJyGniQVDlOe1/l
T8xUAnk1ZZjq8mkLK8oZy740+04kUONtWe5CGuxasdRa1iLKkd4bp1nTO1y0O6NW
xYibrR9fR5TC/SkakNl7ZpFtWCKyQt1PxRDyvsydErHf5sBjZq3+TbRhELfWPhDV
QTXzNuNGzbNN29YmZEq88u90Zk0PV/h1z5cqsTIsnziTp4h3kjUX2ik+9KRWp7Ys
eLL5Ba14lJcpPg==
-----END CERTIFICATE-----
