Certificate:
    Data:
        Version: 3 (0x2)
        Serial Number: 1 (0x1)
        Signature Algorithm: sha1WithRSAEncryption
        Issuer: DC=org, DC=simple, O=Simple Inc, OU=Simple Root CA, CN=Simple Root CA
        Validity
            Not Before: Nov 22 20:20:53 2021 GMT
            Not After : Nov 22 20:20:53 2031 GMT
        Subject: DC=org, DC=simple, O=Simple Inc, OU=Simple Root CA, CN=Simple Root CA
        Subject Public Key Info:
            Public Key Algorithm: rsaEncryption
                RSA Public-Key: (2048 bit)
                Modulus:
                    00:9a:3a:75:ce:8e:b8:cc:52:15:bf:be:7a:b2:cc:
                    aa:49:91:a0:af:bf:09:c3:44:41:f7:56:bd:13:5e:
                    4c:75:21:85:0e:6d:cc:2a:82:b0:a7:81:43:41:ac:
                    4d:b6:27:b4:40:0e:e9:06:c3:e5:ce:d6:79:52:85:
                    a7:07:a5:65:37:b0:45:1b:3c:5f:13:ac:af:f8:41:
                    7f:30:43:42:9f:99:67:c1:3e:9a:2c:bc:fe:8e:ee:
                    b1:f6:8b:06:89:e1:0f:bc:ee:82:e3:29:29:8e:69:
                    83:61:c9:c3:0c:8f:25:94:e1:44:8a:df:93:8a:10:
                    1e:ff:3d:c7:70:3c:35:a2:5f:31:2e:59:4d:66:26:
                    c5:e4:69:67:e6:77:8b:80:60:39:39:54:0d:3f:da:
                    f1:07:92:ee:ee:e4:5a:e7:d3:5c:52:26:bf:ea:f6:
                    e8:0e:bf:27:2c:ac:e4:84:ef:7b:39:77:26:fe:81:
                    07:cc:cd:2c:5b:70:43:39:5a:a2:2b:9d:b2:d4:92:
                    bf:0f:08:e4:32:5c:13:2a:aa:ba:78:d8:17:29:85:
                    7b:fd:9d:20:a0:31:0e:2c:13:fa:60:c8:48:35:e9:
                    04:a2:d7:6c:a5:a1:79:5f:e3:ab:54:10:04:98:83:
                    2e:12:54:c5:bc:3e:91:f6:d2:66:0d:73:af:d3:f8:
                    28:7d
                Exponent: 65537 (0x10001)
        X509v3 extensions:
            X509v3 Key Usage: critical
                Certificate Sign, CRL Sign
            X509v3 Basic Constraints: critical
                CA:TRUE
            X509v3 Subject Key Identifier: 
                CE:D8:8D:3E:C0:ED:E6:D5:92:6A:05:44:51:77:C6:0F:9D:72:64:E5
            X509v3 Authority Key Identifier: 
                keyid:CE:D8:8D:3E:C0:ED:E6:D5:92:6A:05:44:51:77:C6:0F:9D:72:64:E5

    Signature Algorithm: sha1WithRSAEncryption
         0f:f5:b1:f1:51:8e:c3:80:6a:c6:89:df:36:f3:3e:b0:8f:5c:
         4c:57:63:cb:4e:30:1c:a5:5c:b1:4a:f0:e9:d0:d6:60:72:01:
         23:e5:88:42:50:a8:46:31:ac:c9:f9:8c:2b:74:23:44:c8:7e:
         f8:c4:8e:b0:e4:8f:d4:69:bf:1a:9a:75:9a:d0:dd:89:bb:15:
         f1:14:92:55:c1:91:97:7a:5f:54:d2:23:9c:c6:71:b9:22:f5:
         12:02:72:1a:78:90:54:39:4e:7b:5f:e5:4f:cc:54:02:79:35:
         65:98:ea:f2:69:0b:2b:ca:19:cb:be:34:fb:4e:24:50:e3:6d:
         59:ee:42:1a:ec:5a:b1:d4:5a:d6:22:ca:91:de:1b:a7:59:d3:
         3b:5c:b4:3b:a3:56:c5:88:9b:ad:1f:5f:47:94:c2:fd:29:1a:
         90:d9:7b:66:91:6d:58:22:b2:42:dd:4f:c5:10:f2:be:cc:9d:
         12:b1:df:e6:c0:63:66:ad:fe:4d:b4:61:10:b7:d6:3e:10:d5:
         41:35:f3:36:e3:46:cd:b3:4d:db:d6:26:64:4a:bc:f2:ef:74:
         66:4d:0f:57:f8:75:cf:97:2a:b1:32:2c:9f:38:93:a7:88:77:
         92:35:17:da:29:3e:f4:a4:56:a7:b6:2c:78:b2:f9:05:ad:78:
         94:97:29:3e
-----BEGIN CERTIFICATE-----
MIIDxjCCAq6gAwIBAgIBATANBgkqhkiG9w0BAQUFADB0MRMwEQYKCZImiZPyLGQB
GRYDb3JnMRYwFAYKCZImiZPyLGQBGRYGc2ltcGxlMRMwEQYDVQQKDApTaW1wbGUg
SW5jMRcwFQYDVQQLDA5TaW1wbGUgUm9vdCBDQTEXMBUGA1UEAwwOU2ltcGxlIFJv
b3QgQ0EwHhcNMjExMTIyMjAyMDUzWhcNMzExMTIyMjAyMDUzWjB0MRMwEQYKCZIm
iZPyLGQBGRYDb3JnMRYwFAYKCZImiZPyLGQBGRYGc2ltcGxlMRMwEQYDVQQKDApT
aW1wbGUgSW5jMRcwFQYDVQQLDA5TaW1wbGUgUm9vdCBDQTEXMBUGA1UEAwwOU2lt
cGxlIFJvb3QgQ0EwggEiMA0GCSqGSIb3DQEBAQUAA4IBDwAwggEKAoIBAQCaOnXO
jrjMUhW/vnqyzKpJkaCvvwnDREH3Vr0TXkx1IYUObcwqgrCngUNBrE22J7RADukG
w+XO1nlShacHpWU3sEUbPF8TrK/4QX8wQ0KfmWfBPposvP6O7rH2iwaJ4Q+87oLj
KSmOaYNhycMMjyWU4USK35OKEB7/PcdwPDWiXzEuWU1mJsXkaWfmd4uAYDk5VA0/
2vEHku7u5Frn01xSJr/q9ugOvycsrOSE73s5dyb+gQfMzSxbcEM5WqIrnbLUkr8P
COQyXBMqqrp42BcphXv9nSCgMQ4sE/pgyEg16QSi12yloXlf46tUEASYgy4SVMW8
PpH20mYNc6/T+Ch9AgMBAAGjYzBhMA4GA1UdDwEB/wQEAwIBBjAPBgNVHRMBAf8E
BTADAQH/MB0GA1UdDgQWBBTO2I0+wO3m1ZJqBURRd8YPnXJk5TAfBgNVHSMEGDAW
gBTO2I0+wO3m1ZJqBURRd8YPnXJk5TANBgkqhkiG9w0BAQUFAAOCAQEAD/Wx8VGO
w4BqxonfNvM+sI9cTFdjy04wHKVcsUrw6dDWYHIBI+WIQlCoRjGsyfmMK3QjRMh+
+MSOsOSP1Gm/Gpp1mtDdibsV8RSSVcGRl3pfVNIjnMZxuSL1EgJyGniQVDlOe1/l
T8xUAnk1ZZjq8mkLK8oZy740+04kUONtWe5CGuxasdRa1iLKkd4bp1nTO1y0O6NW
xYibrR9fR5TC/SkakNl7ZpFtWCKyQt1PxRDyvsydErHf5sBjZq3+TbRhELfWPhDV
QTXzNuNGzbNN29YmZEq88u90Zk0PV/h1z5cqsTIsnziTp4h3kjUX2ik+9KRWp7Ys
eLL5Ba14lJcpPg==
-----END CERTIFICATE-----
