Certificate:
    Data:
        Version: 3 (0x2)
        Serial Number: 2 (0x2)
        Signature Algorithm: sha1WithRSAEncryption
        Issuer: DC=org, DC=simple, O=Simple Inc, OU=Simple Root CA, CN=Simple Root CA
        Validity
            Not Before: Nov 22 20:22:09 2021 GMT
            Not After : Nov 22 20:22:09 2031 GMT
        Subject: DC=org, DC=simple, O=Simple Inc, OU=Simple Signing CA, CN=Simple Signing CA
        Subject Public Key Info:
            Public Key Algorithm: rsaEncryption
                RSA Public-Key: (2048 bit)
                Modulus:
                    00:b0:0f:38:da:ae:bf:35:58:c1:7c:34:9b:8f:5b:
                    e3:4a:03:9b:82:db:16:b7:22:88:17:50:03:aa:41:
                    f8:4f:c8:a9:ef:ba:2b:a1:3b:f8:0d:34:fd:12:5b:
                    62:fa:c4:28:dc:0e:4d:1c:68:1b:ed:a1:ba:57:3a:
                    cc:36:98:b8:f1:85:0e:be:f6:65:22:50:d5:e9:32:
                    b2:a6:c0:7f:c7:bd:24:fb:4a:10:f6:1d:86:00:a7:
                    6c:5b:01:19:9a:78:4a:e1:ec:e5:d3:fc:f1:97:a0:
                    a6:59:c1:0e:3e:d2:70:7e:76:ac:db:ed:5d:25:76:
                    18:23:6a:26:38:af:e2:ab:55:02:83:9c:93:b1:6a:
                    ef:69:0d:4a:9f:28:9f:7a:3c:0e:83:1a:8f:21:b0:
                    09:fd:ab:60:54:15:a6:fc:fb:d4:4c:a5:f9:cc:12:
                    97:6a:bb:e2:ca:23:be:1e:d1:8b:43:81:27:66:e2:
                    eb:15:af:29:d9:90:10:35:9c:c8:7b:da:13:d0:08:
                    dc:43:a2:54:0e:17:8c:b8:d3:79:d3:03:ff:bb:ec:
                    59:36:a7:da:d9:e4:b5:77:5a:2a:5f:61:8c:d1:b2:
                    57:59:71:97:1a:3c:b2:37:87:ec:49:87:e4:26:2e:
                    cd:6a:4e:1b:87:15:22:d9:64:db:82:45:e1:f1:6d:
                    10:d9
                Exponent: 65537 (0x10001)
        X509v3 extensions:
            X509v3 Key Usage: critical
                Certificate Sign, CRL Sign
            X509v3 Basic Constraints: critical
                CA:TRUE, pathlen:0
            X509v3 Subject Key Identifier: 
                2B:E5:06:AE:09:44:2B:EE:54:F8:19:04:46:37:AE:A8:97:D5:22:C1
            X509v3 Authority Key Identifier: 
                keyid:CE:D8:8D:3E:C0:ED:E6:D5:92:6A:05:44:51:77:C6:0F:9D:72:64:E5

    Signature Algorithm: sha1WithRSAEncryption
         92:ac:21:4c:f3:57:3c:cc:71:d1:78:c5:d0:df:12:af:80:9e:
         e5:f7:6c:9a:8a:c4:91:cd:d6:45:ab:f4:20:82:5d:ed:9e:38:
         50:46:b8:95:72:80:8b:ce:9e:11:13:e6:40:2e:56:e8:26:f5:
         2c:b1:eb:47:a9:d1:56:ed:76:50:70:c0:86:ae:c1:29:2e:b8:
         13:38:18:f9:59:a4:5a:7c:8a:5a:7a:fa:19:ed:20:cc:8e:15:
         f5:b8:42:24:8c:04:30:18:ec:44:9d:e4:78:72:5e:fc:ec:31:
         a8:d6:15:71:33:67:e5:9b:ed:1b:b1:a6:d7:4e:cc:09:d4:9a:
         b7:3c:88:f7:f2:76:95:de:4f:98:85:39:4e:81:20:85:db:0e:
         6d:a4:01:92:ac:2b:fd:8f:39:d8:2c:71:df:46:58:67:2b:54:
         fd:78:2e:59:8f:96:5b:eb:6d:38:59:d8:ce:27:74:b4:90:1e:
         d2:13:a2:cc:e0:5a:4a:3e:03:92:44:cb:b9:c7:5f:32:60:bc:
         23:28:ee:8f:5e:88:0e:2e:07:27:a6:d2:29:0f:74:67:ae:64:
         a9:02:b9:4f:96:b1:b3:53:6e:e9:af:c0:b7:e9:54:9e:9c:ea:
         37:85:56:01:09:8e:4f:68:dc:ea:e7:2e:fc:78:fb:4d:99:d4:
         c5:95:75:63
-----BEGIN CERTIFICATE-----
MIIDzzCCAregAwIBAgIBAjANBgkqhkiG9w0BAQUFADB0MRMwEQYKCZImiZPyLGQB
GRYDb3JnMRYwFAYKCZImiZPyLGQBGRYGc2ltcGxlMRMwEQYDVQQKDApTaW1wbGUg
SW5jMRcwFQYDVQQLDA5TaW1wbGUgUm9vdCBDQTEXMBUGA1UEAwwOU2ltcGxlIFJv
b3QgQ0EwHhcNMjExMTIyMjAyMjA5WhcNMzExMTIyMjAyMjA5WjB6MRMwEQYKCZIm
iZPyLGQBGRYDb3JnMRYwFAYKCZImiZPyLGQBGRYGc2ltcGxlMRMwEQYDVQQKDApT
aW1wbGUgSW5jMRowGAYDVQQLDBFTaW1wbGUgU2lnbmluZyBDQTEaMBgGA1UEAwwR
U2ltcGxlIFNpZ25pbmcgQ0EwggEiMA0GCSqGSIb3DQEBAQUAA4IBDwAwggEKAoIB
AQCwDzjarr81WMF8NJuPW+NKA5uC2xa3IogXUAOqQfhPyKnvuiuhO/gNNP0SW2L6
xCjcDk0caBvtobpXOsw2mLjxhQ6+9mUiUNXpMrKmwH/HvST7ShD2HYYAp2xbARma
eErh7OXT/PGXoKZZwQ4+0nB+dqzb7V0ldhgjaiY4r+KrVQKDnJOxau9pDUqfKJ96
PA6DGo8hsAn9q2BUFab8+9RMpfnMEpdqu+LKI74e0YtDgSdm4usVrynZkBA1nMh7
2hPQCNxDolQOF4y403nTA/+77Fk2p9rZ5LV3WipfYYzRsldZcZcaPLI3h+xJh+Qm
Ls1qThuHFSLZZNuCReHxbRDZAgMBAAGjZjBkMA4GA1UdDwEB/wQEAwIBBjASBgNV
HRMBAf8ECDAGAQH/AgEAMB0GA1UdDgQWBBQr5QauCUQr7lT4GQRGN66ol9UiwTAf
BgNVHSMEGDAWgBTO2I0+wO3m1ZJqBURRd8YPnXJk5TANBgkqhkiG9w0BAQUFAAOC
AQEAkqwhTPNXPMxx0XjF0N8Sr4Ce5fdsmorEkc3WRav0IIJd7Z44UEa4lXKAi86e
ERPmQC5W6Cb1LLHrR6nRVu12UHDAhq7BKS64EzgY+VmkWnyKWnr6Ge0gzI4V9bhC
JIwEMBjsRJ3keHJe/OwxqNYVcTNn5ZvtG7Gm107MCdSatzyI9/J2ld5PmIU5ToEg
hdsObaQBkqwr/Y852Cxx30ZYZytU/XguWY+WW+ttOFnYzid0tJAe0hOizOBaSj4D
kkTLucdfMmC8Iyjuj16IDi4HJ6bSKQ90Z65kqQK5T5axs1Nu6a/At+lUnpzqN4VW
AQmOT2jc6ucu/Hj7TZnUxZV1Yw==
-----END CERTIFICATE-----
